	.file	"main.c"
	.text
.Ltext0:
	.globl	winW
	.data
	.align 4
	.type	winW, @object
	.size	winW, 4
winW:
	.long	1280
	.globl	winH
	.align 4
	.type	winH, @object
	.size	winH, 4
winH:
	.long	960
	.globl	pointer_x
	.bss
	.align 8
	.type	pointer_x, @object
	.size	pointer_x, 8
pointer_x:
	.zero	8
	.globl	pointer_y
	.align 8
	.type	pointer_y, @object
	.size	pointer_y, 8
pointer_y:
	.zero	8
	.comm	objX,8,8
	.comm	objY,8,8
	.comm	objZ,8,8
	.globl	cam_height
	.data
	.align 8
	.type	cam_height, @object
	.size	cam_height, 8
cam_height:
	.long	0
	.long	1075052544
	.globl	cam_angle
	.bss
	.align 8
	.type	cam_angle, @object
	.size	cam_angle, 8
cam_angle:
	.zero	8
	.globl	mode_name
	.section	.rodata
.LC0:
	.string	"WATCH"
.LC1:
	.string	"BREED"
.LC2:
	.string	"CARRY"
.LC3:
	.string	"COLOR"
.LC4:
	.string	"LINE"
	.section	.data.rel.local,"aw",@progbits
	.align 32
	.type	mode_name, @object
	.size	mode_name, 40
mode_name:
	.quad	.LC0
	.quad	.LC1
	.quad	.LC2
	.quad	.LC3
	.quad	.LC4
	.globl	mode
	.bss
	.align 4
	.type	mode, @object
	.size	mode, 4
mode:
	.zero	4
	.globl	rgb_flg
	.align 4
	.type	rgb_flg, @object
	.size	rgb_flg, 4
rgb_flg:
	.zero	4
	.globl	rgb_pm
	.data
	.align 4
	.type	rgb_pm, @object
	.size	rgb_pm, 4
rgb_pm:
	.long	1
	.comm	line_flg,4,4
	.text
	.globl	init
	.type	init, @function
init:
.LFB5:
	.file 1 "main.c"
	.loc 1 53 0
	.cfi_startproc
	pushq	%rbp
	.cfi_def_cfa_offset 16
	.cfi_offset 6, -16
	movq	%rsp, %rbp
	.cfi_def_cfa_register 6
	.loc 1 54 0
	movl	$0, %edi
	call	time@PLT
	movl	%eax, %edi
	call	srand@PLT
	.loc 1 55 0
	movl	$10, %edi
	call	initCat@PLT
	.loc 1 56 0
	call	texinit@PLT
	.loc 1 57 0
	leaq	camera(%rip), %rdi
	call	unitMat@PLT
	.loc 1 58 0
	call	makeCloud@PLT
	.loc 1 59 0
	movl	$0, %eax
	call	makeBucket@PLT
	.loc 1 60 0
	movl	$-1, pick_obj(%rip)
	.loc 1 61 0
	nop
	popq	%rbp
	.cfi_def_cfa 7, 8
	ret
	.cfi_endproc
.LFE5:
	.size	init, .-init
	.globl	shaking
	.type	shaking, @function
shaking:
.LFB6:
	.loc 1 63 0
	.cfi_startproc
	pushq	%rbp
	.cfi_def_cfa_offset 16
	.cfi_offset 6, -16
	movq	%rsp, %rbp
	.cfi_def_cfa_register 6
	subq	$176, %rsp
	.loc 1 63 0
	movq	%fs:40, %rax
	movq	%rax, -8(%rbp)
	xorl	%eax, %eax
	.loc 1 66 0
	movsd	.LC5(%rip), %xmm0
	movsd	%xmm0, -88(%rbp)
	.loc 1 67 0
	movl	count.18428(%rip), %eax
	cmpl	$5, %eax
	jg	.L3
	.loc 1 68 0
	movsd	-88(%rbp), %xmm1
	movq	.LC6(%rip), %xmm0
	xorpd	%xmm1, %xmm0
	movsd	%xmm0, -88(%rbp)
.L3:
	.loc 1 69 0
	leaq	-160(%rbp), %rax
	movq	-88(%rbp), %rdx
	pxor	%xmm2, %xmm2
	pxor	%xmm1, %xmm1
	movq	%rdx, -168(%rbp)
	movsd	-168(%rbp), %xmm0
	movq	%rax, %rdi
	call	tlMat@PLT
	movq	-160(%rbp), %rax
	movq	-152(%rbp), %rdx
	movq	%rax, -80(%rbp)
	movq	%rdx, -72(%rbp)
	movq	-144(%rbp), %rax
	movq	-136(%rbp), %rdx
	movq	%rax, -64(%rbp)
	movq	%rdx, -56(%rbp)
	movq	-128(%rbp), %rax
	movq	-120(%rbp), %rdx
	movq	%rax, -48(%rbp)
	movq	%rdx, -40(%rbp)
	movq	-112(%rbp), %rax
	movq	-104(%rbp), %rdx
	movq	%rax, -32(%rbp)
	movq	%rdx, -24(%rbp)
	.loc 1 70 0
	leaq	-80(%rbp), %rax
	leaq	camera(%rip), %rsi
	movq	%rax, %rdi
	call	dotMat@PLT
	.loc 1 71 0
	leaq	-80(%rbp), %rax
	movq	%rax, %rsi
	leaq	camera(%rip), %rdi
	call	copyMat@PLT
	.loc 1 72 0
	leaq	inv(%rip), %rsi
	leaq	camera(%rip), %rdi
	call	gluInvertMatrix@PLT
	.loc 1 73 0
	movl	count.18428(%rip), %eax
	addl	$1, %eax
	movl	%eax, count.18428(%rip)
	.loc 1 74 0
	movl	count.18428(%rip), %eax
	cmpl	$12, %eax
	jne	.L6
	.loc 1 75 0
	movl	$0, count.18428(%rip)
.L6:
	.loc 1 76 0
	nop
	movq	-8(%rbp), %rax
	xorq	%fs:40, %rax
	je	.L5
	call	__stack_chk_fail@PLT
.L5:
	leave
	.cfi_def_cfa 7, 8
	ret
	.cfi_endproc
.LFE6:
	.size	shaking, .-shaking
	.globl	getWorldCood
	.type	getWorldCood, @function
getWorldCood:
.LFB7:
	.loc 1 79 0
	.cfi_startproc
	pushq	%rbp
	.cfi_def_cfa_offset 16
	.cfi_offset 6, -16
	movq	%rsp, %rbp
	.cfi_def_cfa_register 6
	subq	$320, %rsp
	movl	%edi, -308(%rbp)
	movl	%esi, -312(%rbp)
	.loc 1 79 0
	movq	%fs:40, %rax
	movq	%rax, -8(%rbp)
	xorl	%eax, %eax
	.loc 1 81 0
	leaq	-272(%rbp), %rax
	movq	%rax, %rsi
	movl	$2982, %edi
	call	glGetDoublev@PLT
	.loc 1 84 0
	leaq	-144(%rbp), %rax
	movq	%rax, %rsi
	movl	$2983, %edi
	call	glGetDoublev@PLT
	.loc 1 87 0
	leaq	-288(%rbp), %rax
	movq	%rax, %rsi
	movl	$2978, %edi
	call	glGetIntegerv@PLT
	.loc 1 91 0
	movl	winH(%rip), %eax
	subl	-312(%rbp), %eax
	movl	%eax, %esi
	movl	-308(%rbp), %eax
	subq	$8, %rsp
	leaq	-292(%rbp), %rdx
	pushq	%rdx
	movl	$5126, %r9d
	movl	$6402, %r8d
	movl	$1, %ecx
	movl	$1, %edx
	movl	%eax, %edi
	call	glReadPixels@PLT
	addq	$16, %rsp
	.loc 1 92 0
	movss	-292(%rbp), %xmm0
	cvtss2sd	%xmm0, %xmm2
	movl	winH(%rip), %eax
	subl	-312(%rbp), %eax
	cvtsi2sd	%eax, %xmm1
	cvtsi2sd	-308(%rbp), %xmm0
	leaq	-288(%rbp), %rdx
	leaq	-144(%rbp), %rsi
	leaq	-272(%rbp), %rax
	leaq	objZ(%rip), %r9
	leaq	objY(%rip), %r8
	leaq	objX(%rip), %rcx
	movq	%rax, %rdi
	call	gluUnProject@PLT
	.loc 1 93 0
	nop
	movq	-8(%rbp), %rax
	xorq	%fs:40, %rax
	je	.L8
	call	__stack_chk_fail@PLT
.L8:
	leave
	.cfi_def_cfa 7, 8
	ret
	.cfi_endproc
.LFE7:
	.size	getWorldCood, .-getWorldCood
	.globl	liner_search
	.type	liner_search, @function
liner_search:
.LFB8:
	.loc 1 96 0
	.cfi_startproc
	pushq	%rbp
	.cfi_def_cfa_offset 16
	.cfi_offset 6, -16
	movq	%rsp, %rbp
	.cfi_def_cfa_register 6
	movsd	%xmm0, -24(%rbp)
	movsd	%xmm1, -32(%rbp)
.LBB2:
	.loc 1 98 0
	movl	$0, -4(%rbp)
	jmp	.L10
.L14:
	.loc 1 99 0
	movl	-4(%rbp), %eax
	movslq	%eax, %rdx
	movq	%rdx, %rax
	salq	$3, %rax
	addq	%rdx, %rax
	salq	$4, %rax
	movq	%rax, %rdx
	leaq	cats(%rip), %rax
	movsd	(%rdx,%rax), %xmm0
	subsd	-24(%rbp), %xmm0
	cvttsd2si	%xmm0, %eax
	movl	%eax, %ecx
	sarl	$31, %ecx
	xorl	%ecx, %eax
	movl	%eax, %edx
	subl	%ecx, %edx
	movl	-4(%rbp), %eax
	movslq	%eax, %rcx
	movq	%rcx, %rax
	salq	$3, %rax
	addq	%rcx, %rax
	salq	$4, %rax
	movq	%rax, %rcx
	leaq	16+cats(%rip), %rax
	movsd	(%rcx,%rax), %xmm0
	subsd	-32(%rbp), %xmm0
	cvttsd2si	%xmm0, %eax
	movl	%eax, %ecx
	sarl	$31, %ecx
	xorl	%ecx, %eax
	subl	%ecx, %eax
	imull	%edx, %eax
	cvtsi2sd	%eax, %xmm0
	movsd	.LC8(%rip), %xmm1
	ucomisd	%xmm0, %xmm1
	jbe	.L16
	.loc 1 100 0
	movl	-4(%rbp), %eax
	jmp	.L13
.L16:
	.loc 1 98 0 discriminator 2
	addl	$1, -4(%rbp)
.L10:
	.loc 1 98 0 is_stmt 0 discriminator 1
	movl	n(%rip), %eax
	cmpl	%eax, -4(%rbp)
	jl	.L14
.LBE2:
	.loc 1 102 0 is_stmt 1
	movl	$-1, %eax
.L13:
	.loc 1 103 0
	popq	%rbp
	.cfi_def_cfa 7, 8
	ret
	.cfi_endproc
.LFE8:
	.size	liner_search, .-liner_search
	.globl	display
	.type	display, @function
display:
.LFB9:
	.loc 1 114 0
	.cfi_startproc
	pushq	%rbp
	.cfi_def_cfa_offset 16
	.cfi_offset 6, -16
	movq	%rsp, %rbp
	.cfi_def_cfa_register 6
	subq	$64, %rsp
	.loc 1 114 0
	movq	%fs:40, %rax
	movq	%rax, -8(%rbp)
	xorl	%eax, %eax
	.loc 1 115 0
	movl	mode(%rip), %eax
	cmpl	$5, %eax
	jne	.L18
	.loc 1 116 0
	movl	$0, %eax
	call	shaking
	.loc 1 117 0
	movl	$0, %eax
	call	fusion_clearColor@PLT
	jmp	.L19
.L18:
	.loc 1 119 0
	pxor	%xmm3, %xmm3
	movss	.LC10(%rip), %xmm2
	pxor	%xmm1, %xmm1
	pxor	%xmm0, %xmm0
	call	glClearColor@PLT
.L19:
	.loc 1 122 0
	movl	$16640, %edi
	call	glClear@PLT
	.loc 1 123 0
	movq	cam_angle(%rip), %rax
	movq	%rax, -56(%rbp)
	movsd	-56(%rbp), %xmm0
	call	tan@PLT
	movapd	%xmm0, %xmm1
	movsd	.LC11(%rip), %xmm0
	mulsd	%xmm1, %xmm0
	movsd	.LC12(%rip), %xmm1
	subsd	%xmm0, %xmm1
	movapd	%xmm1, %xmm0
	movsd	.LC12(%rip), %xmm4
	movsd	.LC8(%rip), %xmm3
	movsd	.LC13(%rip), %xmm2
	movsd	.LC14(%rip), %xmm8
	subq	$8, %rsp
	pxor	%xmm1, %xmm1
	leaq	-8(%rsp), %rsp
	movsd	%xmm1, (%rsp)
	movapd	%xmm4, %xmm7
	pxor	%xmm6, %xmm6
	movapd	%xmm3, %xmm5
	movapd	%xmm0, %xmm4
	pxor	%xmm3, %xmm3
	movapd	%xmm8, %xmm1
	pxor	%xmm0, %xmm0
	call	gluLookAt@PLT
	addq	$16, %rsp
	.loc 1 124 0
	movl	$5888, %edi
	call	glMatrixMode@PLT
	.loc 1 125 0
	call	glLoadIdentity@PLT
	.loc 1 128 0
	movl	$2896, %edi
	call	glDisable@PLT
	.loc 1 129 0
	call	glPushMatrix@PLT
	.loc 1 130 0
	movsd	.LC12(%rip), %xmm0
	movq	.LC15(%rip), %rax
	pxor	%xmm3, %xmm3
	pxor	%xmm2, %xmm2
	movapd	%xmm0, %xmm1
	movq	%rax, -56(%rbp)
	movsd	-56(%rbp), %xmm0
	call	glRotated@PLT
	.loc 1 132 0
	movsd	.LC16(%rip), %xmm1
	movsd	.LC17(%rip), %xmm0
	movq	.LC18(%rip), %rax
	movapd	%xmm1, %xmm2
	movapd	%xmm0, %xmm1
	movq	%rax, -56(%rbp)
	movsd	-56(%rbp), %xmm0
	call	drawMap@PLT
	.loc 1 134 0
	movl	mode(%rip), %eax
	cmpl	$1, %eax
	je	.L20
	.loc 1 134 0 is_stmt 0 discriminator 1
	movl	mode(%rip), %eax
	cmpl	$2, %eax
	jne	.L21
.L20:
	.loc 1 135 0 is_stmt 1
	movsd	.LC18(%rip), %xmm0
	movapd	%xmm0, %xmm2
	pxor	%xmm1, %xmm1
	pxor	%xmm0, %xmm0
	call	glTranslated@PLT
	.loc 1 136 0
	movsd	pointer_y(%rip), %xmm0
	movq	pointer_x(%rip), %rax
	movapd	%xmm0, %xmm1
	movq	%rax, -56(%rbp)
	movsd	-56(%rbp), %xmm0
	call	drawPointer@PLT
	jmp	.L22
.L21:
	.loc 1 137 0
	movl	mode(%rip), %eax
	cmpl	$3, %eax
	jne	.L22
	.loc 1 138 0
	movsd	.LC18(%rip), %xmm0
	movapd	%xmm0, %xmm2
	pxor	%xmm1, %xmm1
	pxor	%xmm0, %xmm0
	call	glTranslated@PLT
	.loc 1 139 0
	movl	rgb_pm(%rip), %ecx
	movl	rgb_flg(%rip), %edx
	movsd	pointer_y(%rip), %xmm0
	movq	pointer_x(%rip), %rax
	movl	%ecx, %esi
	movl	%edx, %edi
	movapd	%xmm0, %xmm1
	movq	%rax, -56(%rbp)
	movsd	-56(%rbp), %xmm0
	call	drawColorPointer@PLT
.L22:
	.loc 1 142 0
	call	glPopMatrix@PLT
	.loc 1 144 0
	call	init3d@PLT
	.loc 1 145 0
	movl	mode(%rip), %eax
	cmpl	$4, %eax
	jne	.L23
	.loc 1 146 0
	movl	line_vec_num(%rip), %eax
	cvtsi2sd	%eax, %xmm0
	movsd	.LC19(%rip), %xmm1
	divsd	%xmm1, %xmm0
	call	drawBucket@PLT
.L23:
	.loc 1 149 0
	leaq	camera(%rip), %rdi
	call	glMultMatrixf@PLT
	.loc 1 151 0
	movl	$60, %edi
	call	drawFloor@PLT
	.loc 1 152 0
	movl	mode(%rip), %eax
	cmpl	$5, %eax
	jne	.L24
	.loc 1 153 0
	movl	$0, %eax
	call	fusion_cloud@PLT
	jmp	.L25
.L24:
.LBB3:
	.loc 1 155 0
	movss	.LC10(%rip), %xmm0
	movss	%xmm0, -32(%rbp)
	movss	.LC10(%rip), %xmm0
	movss	%xmm0, -28(%rbp)
	movss	.LC10(%rip), %xmm0
	movss	%xmm0, -24(%rbp)
	movss	.LC10(%rip), %xmm0
	movss	%xmm0, -20(%rbp)
	.loc 1 156 0
	leaq	-32(%rbp), %rax
	movq	%rax, %rdx
	movl	$5634, %esi
	movl	$1032, %edi
	call	glMaterialfv@PLT
.L25:
.LBE3:
	.loc 1 158 0
	call	drawCloud@PLT
	.loc 1 160 0
	movl	mode(%rip), %eax
	cmpl	$5, %eax
	je	.L26
	.loc 1 161 0
	call	updateFunc@PLT
.L26:
.LBB4:
	.loc 1 163 0
	movl	$0, -40(%rbp)
	jmp	.L27
.L28:
	.loc 1 164 0 discriminator 3
	movl	-40(%rbp), %eax
	movl	%eax, %edi
	call	drawCat@PLT
	.loc 1 163 0 discriminator 3
	addl	$1, -40(%rbp)
.L27:
	.loc 1 163 0 is_stmt 0 discriminator 1
	movl	n(%rip), %eax
	cmpl	%eax, -40(%rbp)
	jl	.L28
.LBE4:
	.loc 1 168 0 is_stmt 1
	call	glPushMatrix@PLT
	.loc 1 169 0
	movl	$2896, %edi
	call	glDisable@PLT
	.loc 1 170 0
	movsd	.LC12(%rip), %xmm1
	movsd	.LC12(%rip), %xmm0
	movq	.LC12(%rip), %rax
	movapd	%xmm1, %xmm2
	movapd	%xmm0, %xmm1
	movq	%rax, -56(%rbp)
	movsd	-56(%rbp), %xmm0
	call	glColor3d@PLT
	.loc 1 171 0
	movss	.LC20(%rip), %xmm0
	call	glLineWidth@PLT
.LBB5:
	.loc 1 172 0
	movl	$0, -36(%rbp)
	jmp	.L29
.L30:
	.loc 1 173 0 discriminator 3
	movl	$1, %edi
	call	glBegin@PLT
	.loc 1 174 0 discriminator 3
	movl	-36(%rbp), %eax
	movslq	%eax, %rdx
	movq	%rdx, %rax
	addq	%rax, %rax
	addq	%rdx, %rax
	salq	$3, %rax
	movq	%rax, %rdx
	leaq	16+line_vector(%rip), %rax
	movsd	(%rdx,%rax), %xmm0
	cvtsd2ss	%xmm0, %xmm2
	movl	-36(%rbp), %eax
	movslq	%eax, %rdx
	movq	%rdx, %rax
	addq	%rax, %rax
	addq	%rdx, %rax
	salq	$3, %rax
	movq	%rax, %rdx
	leaq	8+line_vector(%rip), %rax
	movsd	(%rdx,%rax), %xmm0
	cvtsd2ss	%xmm0, %xmm1
	movl	-36(%rbp), %eax
	movslq	%eax, %rdx
	movq	%rdx, %rax
	addq	%rax, %rax
	addq	%rdx, %rax
	salq	$3, %rax
	movq	%rax, %rdx
	leaq	line_vector(%rip), %rax
	movsd	(%rdx,%rax), %xmm0
	cvtsd2ss	%xmm0, %xmm0
	call	glVertex3f@PLT
	.loc 1 175 0 discriminator 3
	movl	-36(%rbp), %eax
	addl	$1, %eax
	movslq	%eax, %rdx
	movq	%rdx, %rax
	addq	%rax, %rax
	addq	%rdx, %rax
	salq	$3, %rax
	movq	%rax, %rdx
	leaq	16+line_vector(%rip), %rax
	movsd	(%rdx,%rax), %xmm0
	cvtsd2ss	%xmm0, %xmm2
	movl	-36(%rbp), %eax
	addl	$1, %eax
	movslq	%eax, %rdx
	movq	%rdx, %rax
	addq	%rax, %rax
	addq	%rdx, %rax
	salq	$3, %rax
	movq	%rax, %rdx
	leaq	8+line_vector(%rip), %rax
	movsd	(%rdx,%rax), %xmm0
	cvtsd2ss	%xmm0, %xmm1
	movl	-36(%rbp), %eax
	addl	$1, %eax
	movslq	%eax, %rdx
	movq	%rdx, %rax
	addq	%rax, %rax
	addq	%rdx, %rax
	salq	$3, %rax
	movq	%rax, %rdx
	leaq	line_vector(%rip), %rax
	movsd	(%rdx,%rax), %xmm0
	cvtsd2ss	%xmm0, %xmm0
	call	glVertex3f@PLT
	.loc 1 176 0 discriminator 3
	call	glEnd@PLT
	.loc 1 172 0 discriminator 3
	addl	$1, -36(%rbp)
.L29:
	.loc 1 172 0 is_stmt 0 discriminator 1
	movl	line_vec_num(%rip), %eax
	subl	$1, %eax
	cmpl	%eax, -36(%rbp)
	jl	.L30
.LBE5:
	.loc 1 179 0 is_stmt 1
	movl	mode(%rip), %eax
	cmpl	$5, %eax
	jne	.L31
	.loc 1 180 0
	movl	$0, %eax
	call	fusion_update@PLT
	testl	%eax, %eax
	je	.L31
	.loc 1 181 0
	movl	$4, mode(%rip)
	.loc 1 182 0
	movl	$0, %eax
	call	line_init@PLT
	.loc 1 183 0
	movl	$0, line_flg(%rip)
.L31:
	.loc 1 187 0
	call	glPopMatrix@PLT
	.loc 1 190 0
	call	glutSwapBuffers@PLT
	.loc 1 191 0
	nop
	movq	-8(%rbp), %rax
	xorq	%fs:40, %rax
	je	.L32
	call	__stack_chk_fail@PLT
.L32:
	leave
	.cfi_def_cfa 7, 8
	ret
	.cfi_endproc
.LFE9:
	.size	display, .-display
	.globl	reshape
	.type	reshape, @function
reshape:
.LFB10:
	.loc 1 202 0
	.cfi_startproc
	pushq	%rbp
	.cfi_def_cfa_offset 16
	.cfi_offset 6, -16
	movq	%rsp, %rbp
	.cfi_def_cfa_register 6
	subq	$16, %rsp
	movl	%edi, -4(%rbp)
	movl	%esi, -8(%rbp)
	.loc 1 203 0
	movl	-8(%rbp), %eax
	movl	%eax, winH(%rip)
	.loc 1 204 0
	movl	-8(%rbp), %edx
	movl	-4(%rbp), %eax
	movl	%edx, %ecx
	movl	%eax, %edx
	movl	$0, %esi
	movl	$0, %edi
	call	glViewport@PLT
	.loc 1 206 0
	movl	$5889, %edi
	call	glMatrixMode@PLT
	.loc 1 207 0
	call	glLoadIdentity@PLT
	.loc 1 208 0
	cvtsi2ss	-4(%rbp), %xmm0
	cvtsi2ss	-8(%rbp), %xmm1
	divss	%xmm1, %xmm0
	cvtss2sd	%xmm0, %xmm0
	movsd	.LC21(%rip), %xmm2
	movsd	.LC22(%rip), %xmm1
	movq	.LC23(%rip), %rax
	movapd	%xmm2, %xmm3
	movapd	%xmm1, %xmm2
	movapd	%xmm0, %xmm1
	movq	%rax, -16(%rbp)
	movsd	-16(%rbp), %xmm0
	call	gluPerspective@PLT
	.loc 1 209 0
	nop
	leave
	.cfi_def_cfa 7, 8
	ret
	.cfi_endproc
.LFE10:
	.size	reshape, .-reshape
	.section	.rodata
.LC24:
	.string	"1->%d\n"
	.text
	.globl	keyboard
	.type	keyboard, @function
keyboard:
.LFB11:
	.loc 1 216 0
	.cfi_startproc
	pushq	%rbp
	.cfi_def_cfa_offset 16
	.cfi_offset 6, -16
	movq	%rsp, %rbp
	.cfi_def_cfa_register 6
	subq	$32, %rsp
	movl	%edi, %eax
	movl	%esi, -24(%rbp)
	movl	%edx, -28(%rbp)
	movb	%al, -20(%rbp)
	.loc 1 222 0
	movl	-8(%rbp), %eax
	movl	%eax, %esi
	leaq	.LC24(%rip), %rdi
	movl	$0, %eax
	call	printf@PLT
	.loc 1 223 0
	movl	$0, -4(%rbp)
	.loc 1 370 0
	nop
	leave
	.cfi_def_cfa 7, 8
	ret
	.cfi_endproc
.LFE11:
	.size	keyboard, .-keyboard
	.globl	mouse
	.type	mouse, @function
mouse:
.LFB12:
	.loc 1 376 0
	.cfi_startproc
	pushq	%rbp
	.cfi_def_cfa_offset 16
	.cfi_offset 6, -16
	movq	%rsp, %rbp
	.cfi_def_cfa_register 6
	subq	$192, %rsp
	movl	%edi, -164(%rbp)
	movl	%esi, -168(%rbp)
	movl	%edx, -172(%rbp)
	movl	%ecx, -176(%rbp)
	.loc 1 376 0
	movq	%fs:40, %rax
	movq	%rax, -8(%rbp)
	xorl	%eax, %eax
	.loc 1 377 0
	movl	$-1, -148(%rbp)
	.loc 1 379 0
	cmpl	$1, -168(%rbp)
	je	.L75
	.loc 1 382 0
	movl	-176(%rbp), %eax
	leal	30(%rax), %edx
	movl	-172(%rbp), %eax
	addl	$6, %eax
	movl	%edx, %esi
	movl	%eax, %edi
	call	getWorldCood
	.loc 1 383 0
	movsd	objZ(%rip), %xmm0
	movq	objX(%rip), %rax
	movapd	%xmm0, %xmm1
	movq	%rax, -184(%rbp)
	movsd	-184(%rbp), %xmm0
	call	liner_search
	movl	%eax, -148(%rbp)
	.loc 1 386 0
	movl	mode(%rip), %eax
	cmpl	$2, %eax
	je	.L39
	cmpl	$3, %eax
	je	.L40
	cmpl	$1, %eax
	je	.L41
	.loc 1 452 0
	jmp	.L45
.L41:
	.loc 1 388 0
	cmpl	$0, -148(%rbp)
	js	.L76
	.loc 1 390 0
	movl	-148(%rbp), %eax
	movslq	%eax, %rdx
	movq	%rdx, %rax
	salq	$3, %rax
	addq	%rdx, %rax
	salq	$4, %rax
	movq	%rax, %rdx
	leaq	24+cats(%rip), %rax
	movsd	(%rdx,%rax), %xmm0
	ucomisd	.LC25(%rip), %xmm0
	jp	.L43
	ucomisd	.LC25(%rip), %xmm0
	jne	.L43
	.loc 1 391 0
	movl	-148(%rbp), %eax
	movslq	%eax, %rdx
	movq	%rdx, %rax
	salq	$3, %rax
	addq	%rdx, %rax
	salq	$4, %rax
	movq	%rax, %rdx
	leaq	24+cats(%rip), %rax
	movsd	.LC26(%rip), %xmm0
	movsd	%xmm0, (%rdx,%rax)
	.loc 1 392 0
	jmp	.L45
.L43:
	.loc 1 393 0
	movl	-148(%rbp), %eax
	movslq	%eax, %rdx
	movq	%rdx, %rax
	salq	$3, %rax
	addq	%rdx, %rax
	salq	$4, %rax
	movq	%rax, %rdx
	leaq	24+cats(%rip), %rax
	movsd	(%rdx,%rax), %xmm0
	ucomisd	.LC26(%rip), %xmm0
	jp	.L46
	ucomisd	.LC26(%rip), %xmm0
	jne	.L46
	.loc 1 394 0
	movl	-148(%rbp), %eax
	movslq	%eax, %rdx
	movq	%rdx, %rax
	salq	$3, %rax
	addq	%rdx, %rax
	salq	$4, %rax
	movq	%rax, %rdx
	leaq	24+cats(%rip), %rax
	movsd	.LC12(%rip), %xmm0
	movsd	%xmm0, (%rdx,%rax)
	.loc 1 395 0
	jmp	.L45
.L46:
	.loc 1 398 0
	movl	-148(%rbp), %eax
	movslq	%eax, %rdx
	movq	%rdx, %rax
	salq	$3, %rax
	addq	%rdx, %rax
	salq	$4, %rax
	movq	%rax, %rdx
	leaq	60+cats(%rip), %rax
	movl	(%rdx,%rax), %eax
	cmpl	$1, %eax
	je	.L76
	.loc 1 399 0
	movl	-148(%rbp), %eax
	movslq	%eax, %rdx
	movq	%rdx, %rax
	salq	$3, %rax
	addq	%rdx, %rax
	salq	$4, %rax
	movq	%rax, %rdx
	leaq	60+cats(%rip), %rax
	movl	$1, (%rdx,%rax)
	.loc 1 400 0
	movl	-148(%rbp), %eax
	movslq	%eax, %rdx
	movq	%rdx, %rax
	salq	$3, %rax
	addq	%rdx, %rax
	salq	$4, %rax
	movq	%rax, %rdx
	leaq	64+cats(%rip), %rax
	movl	$0, (%rdx,%rax)
	.loc 1 403 0
	jmp	.L76
.L39:
	.loc 1 406 0
	movl	pick_obj(%rip), %eax
	testl	%eax, %eax
	js	.L48
	.loc 1 407 0
	movl	pick_obj(%rip), %eax
	movslq	%eax, %rdx
	movq	%rdx, %rax
	salq	$3, %rax
	addq	%rdx, %rax
	salq	$4, %rax
	movq	%rax, %rdx
	leaq	124+cats(%rip), %rax
	pxor	%xmm0, %xmm0
	movss	%xmm0, (%rdx,%rax)
	.loc 1 408 0
	movl	pick_obj(%rip), %eax
	movslq	%eax, %rdx
	movq	%rdx, %rax
	salq	$3, %rax
	addq	%rdx, %rax
	salq	$4, %rax
	movq	%rax, %rdx
	leaq	60+cats(%rip), %rax
	movl	$2, (%rdx,%rax)
	.loc 1 409 0
	movl	$-1, pick_obj(%rip)
	.loc 1 421 0
	jmp	.L77
.L48:
	.loc 1 411 0
	cmpl	$0, -148(%rbp)
	js	.L77
.LBB6:
	.loc 1 412 0
	movl	-148(%rbp), %eax
	movl	%eax, pick_obj(%rip)
	.loc 1 413 0
	movl	pick_obj(%rip), %eax
	movslq	%eax, %rdx
	movq	%rdx, %rax
	salq	$3, %rax
	addq	%rdx, %rax
	salq	$4, %rax
	movq	%rax, %rdx
	leaq	60+cats(%rip), %rax
	movl	$6, (%rdx,%rax)
	.loc 1 416 0
	leaq	-144(%rbp), %rax
	leaq	inv(%rip), %rsi
	movq	%rax, %rdi
	call	copyMat@PLT
	.loc 1 417 0
	leaq	-80(%rbp), %rax
	movsd	.LC27(%rip), %xmm1
	movsd	.LC28(%rip), %xmm0
	movapd	%xmm1, %xmm2
	movapd	%xmm0, %xmm1
	pxor	%xmm0, %xmm0
	movq	%rax, %rdi
	call	tlMat@PLT
	leaq	-80(%rbp), %rdx
	leaq	-144(%rbp), %rax
	movq	%rdx, %rsi
	movq	%rax, %rdi
	call	dotMat@PLT
	.loc 1 418 0
	movl	pick_obj(%rip), %eax
	movslq	%eax, %rdx
	movq	%rdx, %rax
	salq	$3, %rax
	addq	%rdx, %rax
	salq	$4, %rax
	leaq	64(%rax), %rdx
	leaq	cats(%rip), %rax
	addq	%rdx, %rax
	leaq	8(%rax), %rdx
	leaq	-144(%rbp), %rax
	movq	%rax, %rsi
	movq	%rdx, %rdi
	call	copyMat@PLT
.LBE6:
	.loc 1 421 0
	jmp	.L77
.L40:
	.loc 1 424 0
	cmpl	$0, -148(%rbp)
	js	.L78
	.loc 1 425 0
	movl	rgb_flg(%rip), %eax
	cmpl	$1, %eax
	je	.L51
	cmpl	$2, %eax
	je	.L52
	testl	%eax, %eax
	je	.L53
	.loc 1 449 0
	jmp	.L78
.L53:
	.loc 1 427 0
	movl	-148(%rbp), %eax
	movslq	%eax, %rdx
	movq	%rdx, %rax
	salq	$3, %rax
	addq	%rdx, %rax
	salq	$4, %rax
	movq	%rax, %rdx
	leaq	32+cats(%rip), %rax
	movsd	(%rdx,%rax), %xmm1
	movl	rgb_pm(%rip), %eax
	cvtsi2sd	%eax, %xmm0
	movsd	.LC29(%rip), %xmm2
	mulsd	%xmm2, %xmm0
	addsd	%xmm1, %xmm0
	movl	-148(%rbp), %eax
	movslq	%eax, %rdx
	movq	%rdx, %rax
	salq	$3, %rax
	addq	%rdx, %rax
	salq	$4, %rax
	movq	%rax, %rdx
	leaq	32+cats(%rip), %rax
	movsd	%xmm0, (%rdx,%rax)
	.loc 1 428 0
	movl	-148(%rbp), %eax
	movslq	%eax, %rdx
	movq	%rdx, %rax
	salq	$3, %rax
	addq	%rdx, %rax
	salq	$4, %rax
	movq	%rax, %rdx
	leaq	32+cats(%rip), %rax
	movsd	(%rdx,%rax), %xmm0
	movsd	.LC12(%rip), %xmm1
	ucomisd	%xmm1, %xmm0
	jbe	.L54
	.loc 1 429 0
	movl	-148(%rbp), %eax
	movslq	%eax, %rdx
	movq	%rdx, %rax
	salq	$3, %rax
	addq	%rdx, %rax
	salq	$4, %rax
	movq	%rax, %rdx
	leaq	32+cats(%rip), %rax
	movsd	.LC12(%rip), %xmm0
	movsd	%xmm0, (%rdx,%rax)
.L54:
	.loc 1 430 0
	movl	-148(%rbp), %eax
	movslq	%eax, %rdx
	movq	%rdx, %rax
	salq	$3, %rax
	addq	%rdx, %rax
	salq	$4, %rax
	movq	%rax, %rdx
	leaq	32+cats(%rip), %rax
	movsd	(%rdx,%rax), %xmm1
	pxor	%xmm0, %xmm0
	ucomisd	%xmm1, %xmm0
	ja	.L70
	.loc 1 432 0
	jmp	.L50
.L70:
	.loc 1 431 0
	movl	-148(%rbp), %eax
	movslq	%eax, %rdx
	movq	%rdx, %rax
	salq	$3, %rax
	addq	%rdx, %rax
	salq	$4, %rax
	movq	%rax, %rdx
	leaq	32+cats(%rip), %rax
	pxor	%xmm0, %xmm0
	movsd	%xmm0, (%rdx,%rax)
	.loc 1 432 0
	jmp	.L50
.L51:
	.loc 1 434 0
	movl	-148(%rbp), %eax
	movslq	%eax, %rdx
	movq	%rdx, %rax
	salq	$3, %rax
	addq	%rdx, %rax
	salq	$4, %rax
	movq	%rax, %rdx
	leaq	40+cats(%rip), %rax
	movsd	(%rdx,%rax), %xmm1
	movl	rgb_pm(%rip), %eax
	cvtsi2sd	%eax, %xmm0
	movsd	.LC29(%rip), %xmm2
	mulsd	%xmm2, %xmm0
	addsd	%xmm1, %xmm0
	movl	-148(%rbp), %eax
	movslq	%eax, %rdx
	movq	%rdx, %rax
	salq	$3, %rax
	addq	%rdx, %rax
	salq	$4, %rax
	movq	%rax, %rdx
	leaq	40+cats(%rip), %rax
	movsd	%xmm0, (%rdx,%rax)
	.loc 1 435 0
	movl	-148(%rbp), %eax
	movslq	%eax, %rdx
	movq	%rdx, %rax
	salq	$3, %rax
	addq	%rdx, %rax
	salq	$4, %rax
	movq	%rax, %rdx
	leaq	40+cats(%rip), %rax
	movsd	(%rdx,%rax), %xmm0
	movsd	.LC12(%rip), %xmm1
	ucomisd	%xmm1, %xmm0
	jbe	.L58
	.loc 1 436 0
	movl	-148(%rbp), %eax
	movslq	%eax, %rdx
	movq	%rdx, %rax
	salq	$3, %rax
	addq	%rdx, %rax
	salq	$4, %rax
	movq	%rax, %rdx
	leaq	40+cats(%rip), %rax
	movsd	.LC12(%rip), %xmm0
	movsd	%xmm0, (%rdx,%rax)
.L58:
	.loc 1 437 0
	movl	-148(%rbp), %eax
	movslq	%eax, %rdx
	movq	%rdx, %rax
	salq	$3, %rax
	addq	%rdx, %rax
	salq	$4, %rax
	movq	%rax, %rdx
	leaq	40+cats(%rip), %rax
	movsd	(%rdx,%rax), %xmm1
	pxor	%xmm0, %xmm0
	ucomisd	%xmm1, %xmm0
	ja	.L72
	.loc 1 439 0
	jmp	.L50
.L72:
	.loc 1 438 0
	movl	-148(%rbp), %eax
	movslq	%eax, %rdx
	movq	%rdx, %rax
	salq	$3, %rax
	addq	%rdx, %rax
	salq	$4, %rax
	movq	%rax, %rdx
	leaq	40+cats(%rip), %rax
	pxor	%xmm0, %xmm0
	movsd	%xmm0, (%rdx,%rax)
	.loc 1 439 0
	jmp	.L50
.L52:
	.loc 1 441 0
	movl	-148(%rbp), %eax
	movslq	%eax, %rdx
	movq	%rdx, %rax
	salq	$3, %rax
	addq	%rdx, %rax
	salq	$4, %rax
	movq	%rax, %rdx
	leaq	48+cats(%rip), %rax
	movsd	(%rdx,%rax), %xmm1
	movl	rgb_pm(%rip), %eax
	cvtsi2sd	%eax, %xmm0
	movsd	.LC29(%rip), %xmm2
	mulsd	%xmm2, %xmm0
	addsd	%xmm1, %xmm0
	movl	-148(%rbp), %eax
	movslq	%eax, %rdx
	movq	%rdx, %rax
	salq	$3, %rax
	addq	%rdx, %rax
	salq	$4, %rax
	movq	%rax, %rdx
	leaq	48+cats(%rip), %rax
	movsd	%xmm0, (%rdx,%rax)
	.loc 1 442 0
	movl	-148(%rbp), %eax
	movslq	%eax, %rdx
	movq	%rdx, %rax
	salq	$3, %rax
	addq	%rdx, %rax
	salq	$4, %rax
	movq	%rax, %rdx
	leaq	48+cats(%rip), %rax
	movsd	(%rdx,%rax), %xmm0
	movsd	.LC12(%rip), %xmm1
	ucomisd	%xmm1, %xmm0
	jbe	.L62
	.loc 1 443 0
	movl	-148(%rbp), %eax
	movslq	%eax, %rdx
	movq	%rdx, %rax
	salq	$3, %rax
	addq	%rdx, %rax
	salq	$4, %rax
	movq	%rax, %rdx
	leaq	48+cats(%rip), %rax
	movsd	.LC12(%rip), %xmm0
	movsd	%xmm0, (%rdx,%rax)
.L62:
	.loc 1 444 0
	movl	-148(%rbp), %eax
	movslq	%eax, %rdx
	movq	%rdx, %rax
	salq	$3, %rax
	addq	%rdx, %rax
	salq	$4, %rax
	movq	%rax, %rdx
	leaq	48+cats(%rip), %rax
	movsd	(%rdx,%rax), %xmm1
	pxor	%xmm0, %xmm0
	ucomisd	%xmm1, %xmm0
	ja	.L74
	.loc 1 446 0
	jmp	.L79
.L74:
	.loc 1 445 0
	movl	-148(%rbp), %eax
	movslq	%eax, %rdx
	movq	%rdx, %rax
	salq	$3, %rax
	addq	%rdx, %rax
	salq	$4, %rax
	movq	%rax, %rdx
	leaq	48+cats(%rip), %rax
	pxor	%xmm0, %xmm0
	movsd	%xmm0, (%rdx,%rax)
.L79:
	.loc 1 446 0
	nop
.L50:
	.loc 1 449 0 discriminator 3
	jmp	.L78
.L76:
	.loc 1 403 0
	nop
	jmp	.L45
.L77:
	.loc 1 421 0
	nop
	jmp	.L45
.L78:
	.loc 1 449 0
	nop
.L45:
	.loc 1 455 0
	call	glutPostRedisplay@PLT
	jmp	.L35
.L75:
	.loc 1 380 0
	nop
.L35:
	.loc 1 456 0
	movq	-8(%rbp), %rax
	xorq	%fs:40, %rax
	je	.L66
	call	__stack_chk_fail@PLT
.L66:
	leave
	.cfi_def_cfa 7, 8
	ret
	.cfi_endproc
.LFE12:
	.size	mouse, .-mouse
	.globl	motion
	.type	motion, @function
motion:
.LFB13:
	.loc 1 461 0
	.cfi_startproc
	pushq	%rbp
	.cfi_def_cfa_offset 16
	.cfi_offset 6, -16
	movq	%rsp, %rbp
	.cfi_def_cfa_register 6
	subq	$16, %rsp
	movl	%edi, -4(%rbp)
	movl	%esi, -8(%rbp)
	.loc 1 463 0
	movl	$600, %eax
	subl	-4(%rbp), %eax
	cvtsi2sd	%eax, %xmm0
	movsd	.LC30(%rip), %xmm1
	divsd	%xmm1, %xmm0
	movsd	%xmm0, pointer_x(%rip)
	.loc 1 464 0
	movl	$730, %eax
	subl	-8(%rbp), %eax
	cvtsi2sd	%eax, %xmm0
	movsd	.LC30(%rip), %xmm1
	divsd	%xmm1, %xmm0
	movsd	%xmm0, pointer_y(%rip)
	.loc 1 466 0
	call	glutPostRedisplay@PLT
	.loc 1 467 0
	nop
	leave
	.cfi_def_cfa 7, 8
	ret
	.cfi_endproc
.LFE13:
	.size	motion, .-motion
	.globl	idle
	.type	idle, @function
idle:
.LFB14:
	.loc 1 473 0
	.cfi_startproc
	pushq	%rbp
	.cfi_def_cfa_offset 16
	.cfi_offset 6, -16
	movq	%rsp, %rbp
	.cfi_def_cfa_register 6
	.loc 1 474 0
	call	glutPostRedisplay@PLT
	.loc 1 475 0
	nop
	popq	%rbp
	.cfi_def_cfa 7, 8
	ret
	.cfi_endproc
.LFE14:
	.size	idle, .-idle
	.globl	main
	.type	main, @function
main:
.LFB15:
	.loc 1 481 0
	.cfi_startproc
	pushq	%rbp
	.cfi_def_cfa_offset 16
	.cfi_offset 6, -16
	movq	%rsp, %rbp
	.cfi_def_cfa_register 6
	subq	$16, %rsp
	movl	%edi, -4(%rbp)
	movq	%rsi, -16(%rbp)
	.loc 1 483 0
	movq	-16(%rbp), %rdx
	leaq	-4(%rbp), %rax
	movq	%rdx, %rsi
	movq	%rax, %rdi
	call	glutInit@PLT
	.loc 1 484 0
	movl	$18, %edi
	call	glutInitDisplayMode@PLT
	.loc 1 485 0
	movl	winH(%rip), %edx
	movl	winW(%rip), %eax
	movl	%edx, %esi
	movl	%eax, %edi
	call	glutInitWindowSize@PLT
	.loc 1 486 0
	movl	$50, %esi
	movl	$50, %edi
	call	glutInitWindowPosition@PLT
	.loc 1 487 0
	movl	mode(%rip), %eax
	movl	%eax, %eax
	leaq	0(,%rax,8), %rdx
	leaq	mode_name(%rip), %rax
	movq	(%rdx,%rax), %rax
	movq	%rax, %rdi
	call	glutCreateWindow@PLT
	.loc 1 489 0
	call	init
	.loc 1 491 0
	leaq	display(%rip), %rdi
	call	glutDisplayFunc@PLT
	.loc 1 492 0
	leaq	reshape(%rip), %rdi
	call	glutReshapeFunc@PLT
	.loc 1 493 0
	leaq	keyboard(%rip), %rdi
	call	glutKeyboardFunc@PLT
	.loc 1 494 0
	leaq	idle(%rip), %rdi
	call	glutIdleFunc@PLT
	.loc 1 496 0
	leaq	mouse(%rip), %rdi
	call	glutMouseFunc@PLT
	.loc 1 498 0
	movl	$101, %edi
	call	glutSetCursor@PLT
	.loc 1 499 0
	leaq	motion(%rip), %rdi
	call	glutPassiveMotionFunc@PLT
	.loc 1 501 0
	call	glutMainLoop@PLT
	.loc 1 503 0
	movl	$0, %eax
	.loc 1 504 0
	leave
	.cfi_def_cfa 7, 8
	ret
	.cfi_endproc
.LFE15:
	.size	main, .-main
	.local	count.18428
	.comm	count.18428,4,4
	.section	.rodata
	.align 8
.LC5:
	.long	515396076
	.long	1068624773
	.align 16
.LC6:
	.long	0
	.long	-2147483648
	.long	0
	.long	0
	.align 8
.LC8:
	.long	0
	.long	1073741824
	.align 4
.LC10:
	.long	1065353216
	.align 8
.LC11:
	.long	0
	.long	1082310656
	.align 8
.LC12:
	.long	0
	.long	1072693248
	.align 8
.LC13:
	.long	0
	.long	-1071382528
	.align 8
.LC14:
	.long	0
	.long	1075052544
	.align 8
.LC15:
	.long	3461997116
	.long	1077047128
	.align 8
.LC16:
	.long	0
	.long	1078853632
	.align 8
.LC17:
	.long	3435973837
	.long	1075104972
	.align 8
.LC18:
	.long	0
	.long	-1072431104
	.align 8
.LC19:
	.long	0
	.long	1077805056
	.align 4
.LC20:
	.long	1084227584
	.align 8
.LC21:
	.long	0
	.long	1080623104
	.align 8
.LC22:
	.long	0
	.long	1075314688
	.align 8
.LC23:
	.long	0
	.long	1078362112
	.align 8
.LC25:
	.long	858993459
	.long	1071854387
	.align 8
.LC26:
	.long	2576980378
	.long	1072273817
	.align 8
.LC27:
	.long	0
	.long	1077149696
	.align 8
.LC28:
	.long	0
	.long	1074790400
	.align 8
.LC29:
	.long	2576980378
	.long	1070176665
	.align 8
.LC30:
	.long	0
	.long	1080549376
	.text
.Letext0:
	.file 2 "/usr/include/GL/gl.h"
	.file 3 "/usr/include/x86_64-linux-gnu/bits/types.h"
	.file 4 "/usr/include/GL/glu.h"
	.file 5 "/usr/include/GL/freeglut_std.h"
	.file 6 "/usr/lib/gcc/x86_64-linux-gnu/7/include/stddef.h"
	.file 7 "/usr/include/x86_64-linux-gnu/bits/libio.h"
	.file 8 "/usr/include/stdio.h"
	.file 9 "/usr/include/x86_64-linux-gnu/bits/sys_errlist.h"
	.file 10 "/usr/include/unistd.h"
	.file 11 "/usr/include/x86_64-linux-gnu/bits/getopt_core.h"
	.file 12 "/usr/include/math.h"
	.file 13 "/usr/include/time.h"
	.file 14 "draw_function.h"
	.file 15 "matrix_function.h"
	.file 16 "line.h"
	.file 17 "action.h"
	.section	.note.GNU-stack,"",@progbits
